target datalayout = "e-m:e-p270:32:32-p271:32:32-p272:64:64-i64:64-i128:128-f80:128-n8:16:32:64-S128"
target triple = "x86_64-pc-linux-gnu"

%struct.CommonQuantParams = type { i32, i32, i32, i32, i32, i32, [8 x [2 x i16]], [8 x [2 x i16]], [8 x [2 x i16]], [16 x [3 x [19 x ptr]]], [16 x [3 x [19 x ptr]]], [8 x [19 x ptr]], [8 x [19 x ptr]], [8 x [19 x ptr]], i8, i32, i32, i32 }

@tx_size_2d = internal constant [20 x i32] [i32 16, i32 64, i32 256, i32 1024, i32 4096, i32 32, i32 32, i32 128, i32 128, i32 512, i32 512, i32 2048, i32 2048, i32 64, i32 64, i32 256, i32 256, i32 1024, i32 1024, i32 0], align 16

; Function Attrs: nounwind uwtable
define internal zeroext i8 @av1_get_adjusted_tx_size(i8 noundef zeroext %0) #0 {
  %2 = alloca i8, align 1
  %3 = alloca i8, align 1
  store i8 %0, ptr %3, align 1
  %4 = load i8, ptr %3, align 1
  %5 = zext i8 %4 to i32
  switch i32 %5, label %9 [
    i32 4, label %6
    i32 12, label %6
    i32 11, label %6
    i32 18, label %7
    i32 17, label %8
  ]

6:                                                ; preds = %1, %1, %1
  store i8 3, ptr %2, align 1
  br label %11

7:                                                ; preds = %1
  store i8 10, ptr %2, align 1
  br label %11

8:                                                ; preds = %1
  store i8 9, ptr %2, align 1
  br label %11

9:                                                ; preds = %1
  %10 = load i8, ptr %3, align 1
  store i8 %10, ptr %2, align 1
  br label %11

11:                                               ; preds = %9, %8, %7, %6
  %12 = load i8, ptr %2, align 1
  ret i8 %12
}

; Function Attrs: nounwind uwtable
define hidden void @av1_qm_init(ptr noundef %0, i32 noundef %1) #0 {
  %3 = alloca ptr, align 8
  %4 = alloca i32, align 4
  %5 = alloca i32, align 4
  %6 = alloca i32, align 4
  %7 = alloca i32, align 4
  %8 = alloca i32, align 4
  %9 = alloca i32, align 4
  %10 = alloca i32, align 4
  store ptr %0, ptr %3, align 8
  store i32 %1, ptr %4, align 4
  store i32 0, ptr %5, align 4
  br label %11

11:                                               ; preds = %166, %2
  %12 = load i32, ptr %5, align 4
  %13 = icmp slt i32 %12, 16
  br i1 %13, label %14, label %169

14:                                               ; preds = %11
  store i32 0, ptr %6, align 4
  br label %15

15:                                               ; preds = %162, %14
  %16 = load i32, ptr %6, align 4
  %17 = load i32, ptr %4, align 4
  %18 = icmp slt i32 %16, %17
  br i1 %18, label %19, label %165

19:                                               ; preds = %15
  store i32 0, ptr %7, align 4
  store i32 0, ptr %8, align 4
  br label %20

20:                                               ; preds = %158, %19
  %21 = load i32, ptr %8, align 4
  %22 = icmp slt i32 %21, 19
  br i1 %22, label %23, label %161

23:                                               ; preds = %20
  %24 = load i32, ptr %8, align 4
  %25 = sext i32 %24 to i64
  %26 = getelementptr inbounds [20 x i32], ptr @tx_size_2d, i64 0, i64 %25
  %27 = load i32, ptr %26, align 4
  store i32 %27, ptr %9, align 4
  %28 = load i32, ptr %8, align 4
  %29 = trunc i32 %28 to i8
  %30 = call zeroext i8 @av1_get_adjusted_tx_size(i8 noundef zeroext %29)
  %31 = zext i8 %30 to i32
  store i32 %31, ptr %10, align 4
  %32 = load i32, ptr %5, align 4
  %33 = icmp eq i32 %32, 15
  br i1 %33, label %34, label %57

34:                                               ; preds = %23
  %35 = load ptr, ptr %3, align 8
  %36 = getelementptr inbounds nuw %struct.CommonQuantParams, ptr %35, i32 0, i32 10
  %37 = load i32, ptr %5, align 4
  %38 = sext i32 %37 to i64
  %39 = getelementptr inbounds [16 x [3 x [19 x ptr]]], ptr %36, i64 0, i64 %38
  %40 = load i32, ptr %6, align 4
  %41 = sext i32 %40 to i64
  %42 = getelementptr inbounds [3 x [19 x ptr]], ptr %39, i64 0, i64 %41
  %43 = load i32, ptr %8, align 4
  %44 = sext i32 %43 to i64
  %45 = getelementptr inbounds [19 x ptr], ptr %42, i64 0, i64 %44
  store ptr null, ptr %45, align 8
  %46 = load ptr, ptr %3, align 8
  %47 = getelementptr inbounds nuw %struct.CommonQuantParams, ptr %46, i32 0, i32 9
  %48 = load i32, ptr %5, align 4
  %49 = sext i32 %48 to i64
  %50 = getelementptr inbounds [16 x [3 x [19 x ptr]]], ptr %47, i64 0, i64 %49
  %51 = load i32, ptr %6, align 4
  %52 = sext i32 %51 to i64
  %53 = getelementptr inbounds [3 x [19 x ptr]], ptr %50, i64 0, i64 %52
  %54 = load i32, ptr %8, align 4
  %55 = sext i32 %54 to i64
  %56 = getelementptr inbounds [19 x ptr], ptr %53, i64 0, i64 %55
  store ptr null, ptr %56, align 8
  br label %157

57:                                               ; preds = %23
  %58 = load i32, ptr %8, align 4
  %59 = load i32, ptr %10, align 4
  %60 = icmp ne i32 %58, %59
  br i1 %60, label %61, label %108

61:                                               ; preds = %57
  %62 = load ptr, ptr %3, align 8
  %63 = getelementptr inbounds nuw %struct.CommonQuantParams, ptr %62, i32 0, i32 10
  %64 = load i32, ptr %5, align 4
  %65 = sext i32 %64 to i64
  %66 = getelementptr inbounds [16 x [3 x [19 x ptr]]], ptr %63, i64 0, i64 %65
  %67 = load i32, ptr %6, align 4
  %68 = sext i32 %67 to i64
  %69 = getelementptr inbounds [3 x [19 x ptr]], ptr %66, i64 0, i64 %68
  %70 = load i32, ptr %10, align 4
  %71 = sext i32 %70 to i64
  %72 = getelementptr inbounds [19 x ptr], ptr %69, i64 0, i64 %71
  %73 = load ptr, ptr %72, align 8
  %74 = load ptr, ptr %3, align 8
  %75 = getelementptr inbounds nuw %struct.CommonQuantParams, ptr %74, i32 0, i32 10
  %76 = load i32, ptr %5, align 4
  %77 = sext i32 %76 to i64
  %78 = getelementptr inbounds [16 x [3 x [19 x ptr]]], ptr %75, i64 0, i64 %77
  %79 = load i32, ptr %6, align 4
  %80 = sext i32 %79 to i64
  %81 = getelementptr inbounds [3 x [19 x ptr]], ptr %78, i64 0, i64 %80
  %82 = load i32, ptr %8, align 4
  %83 = sext i32 %82 to i64
  %84 = getelementptr inbounds [19 x ptr], ptr %81, i64 0, i64 %83
  store ptr %73, ptr %84, align 8
  %85 = load ptr, ptr %3, align 8
  %86 = getelementptr inbounds nuw %struct.CommonQuantParams, ptr %85, i32 0, i32 9
  %87 = load i32, ptr %5, align 4
  %88 = sext i32 %87 to i64
  %89 = getelementptr inbounds [16 x [3 x [19 x ptr]]], ptr %86, i64 0, i64 %88
  %90 = load i32, ptr %6, align 4
  %91 = sext i32 %90 to i64
  %92 = getelementptr inbounds [3 x [19 x ptr]], ptr %89, i64 0, i64 %91
  %93 = load i32, ptr %10, align 4
  %94 = sext i32 %93 to i64
  %95 = getelementptr inbounds [19 x ptr], ptr %92, i64 0, i64 %94
  %96 = load ptr, ptr %95, align 8
  %97 = load ptr, ptr %3, align 8
  %98 = getelementptr inbounds nuw %struct.CommonQuantParams, ptr %97, i32 0, i32 9
  %99 = load i32, ptr %5, align 4
  %100 = sext i32 %99 to i64
  %101 = getelementptr inbounds [16 x [3 x [19 x ptr]]], ptr %98, i64 0, i64 %100
  %102 = load i32, ptr %6, align 4
  %103 = sext i32 %102 to i64
  %104 = getelementptr inbounds [3 x [19 x ptr]], ptr %101, i64 0, i64 %103
  %105 = load i32, ptr %8, align 4
  %106 = sext i32 %105 to i64
  %107 = getelementptr inbounds [19 x ptr], ptr %104, i64 0, i64 %106
  store ptr %96, ptr %107, align 8
  br label %156

108:                                              ; preds = %57
  %109 = load i32, ptr %5, align 4
  %110 = sext i32 %109 to i64
  %111 = getelementptr inbounds [15 x [2 x [3344 x i8]]], ptr @wt_matrix_ref, i64 0, i64 %110
  %112 = load i32, ptr %6, align 4
  %113 = icmp sge i32 %112, 1
  %114 = zext i1 %113 to i32
  %115 = sext i32 %114 to i64
  %116 = getelementptr inbounds [2 x [3344 x i8]], ptr %111, i64 0, i64 %115
  %117 = load i32, ptr %7, align 4
  %118 = sext i32 %117 to i64
  %119 = getelementptr inbounds [3344 x i8], ptr %116, i64 0, i64 %118
  %120 = load ptr, ptr %3, align 8
  %121 = getelementptr inbounds nuw %struct.CommonQuantParams, ptr %120, i32 0, i32 10
  %122 = load i32, ptr %5, align 4
  %123 = sext i32 %122 to i64
  %124 = getelementptr inbounds [16 x [3 x [19 x ptr]]], ptr %121, i64 0, i64 %123
  %125 = load i32, ptr %6, align 4
  %126 = sext i32 %125 to i64
  %127 = getelementptr inbounds [3 x [19 x ptr]], ptr %124, i64 0, i64 %126
  %128 = load i32, ptr %8, align 4
  %129 = sext i32 %128 to i64
  %130 = getelementptr inbounds [19 x ptr], ptr %127, i64 0, i64 %129
  store ptr %119, ptr %130, align 8
  %131 = load i32, ptr %5, align 4
  %132 = sext i32 %131 to i64
  %133 = getelementptr inbounds [15 x [2 x [3344 x i8]]], ptr @iwt_matrix_ref, i64 0, i64 %132
  %134 = load i32, ptr %6, align 4
  %135 = icmp sge i32 %134, 1
  %136 = zext i1 %135 to i32
  %137 = sext i32 %136 to i64
  %138 = getelementptr inbounds [2 x [3344 x i8]], ptr %133, i64 0, i64 %137
  %139 = load i32, ptr %7, align 4
  %140 = sext i32 %139 to i64
  %141 = getelementptr inbounds [3344 x i8], ptr %138, i64 0, i64 %140
  %142 = load ptr, ptr %3, align 8
  %143 = getelementptr inbounds nuw %struct.CommonQuantParams, ptr %142, i32 0, i32 9
  %144 = load i32, ptr %5, align 4
  %145 = sext i32 %144 to i64
  %146 = getelementptr inbounds [16 x [3 x [19 x ptr]]], ptr %143, i64 0, i64 %145
  %147 = load i32, ptr %6, align 4
  %148 = sext i32 %147 to i64
  %149 = getelementptr inbounds [3 x [19 x ptr]], ptr %146, i64 0, i64 %148
  %150 = load i32, ptr %8, align 4
  %151 = sext i32 %150 to i64
  %152 = getelementptr inbounds [19 x ptr], ptr %149, i64 0, i64 %151
  store ptr %141, ptr %152, align 8
  %153 = load i32, ptr %9, align 4
  %154 = load i32, ptr %7, align 4
  %155 = add nsw i32 %154, %153
  store i32 %155, ptr %7, align 4
  br label %156

156:                                              ; preds = %108, %61
  br label %157

157:                                              ; preds = %156, %34
  br label %158

158:                                              ; preds = %157
  %159 = load i32, ptr %8, align 4
  %160 = add nsw i32 %159, 1
  store i32 %160, ptr %8, align 4
  br label %20, !llvm.loop !4

161:                                              ; preds = %20
  br label %162

162:                                              ; preds = %161
  %163 = load i32, ptr %6, align 4
  %164 = add nsw i32 %163, 1
  store i32 %164, ptr %6, align 4
  br label %15, !llvm.loop !6

165:                                              ; preds = %15
  br label %166

166:                                              ; preds = %165
  %167 = load i32, ptr %5, align 4
  %168 = add nsw i32 %167, 1
  store i32 %168, ptr %5, align 4
  br label %11, !llvm.loop !7

169:                                              ; preds = %11
  ret void
}