; Function Attrs: nofree norecurse nosync nounwind memory(argmem: readwrite) uwtable
define hidden void @av1_qm_init(ptr nocapture noundef %0, i32 noundef %1) local_unnamed_addr #3 {
  %3 = icmp sgt i32 %1, 0
  %4 = getelementptr inbounds nuw i8, ptr %0, i64 7416
  %5 = getelementptr inbounds nuw i8, ptr %0, i64 120
  %6 = getelementptr inbounds i8, ptr %0, i64 14256
  %7 = getelementptr inbounds i8, ptr %0, i64 6960
  br i1 %3, label %.preheader55.us.preheader, label %.split66.us

.preheader55.us.preheader:                        ; preds = %2
  %wide.trip.count = zext nneg i32 %1 to i64
  %wide.trip.count81 = zext nneg i32 %1 to i64
  br label %.preheader55.us

.preheader55.us:                                  ; preds = %.preheader55.us.preheader, %._crit_edge.us
  %indvars.iv83 = phi i64 [ 0, %.preheader55.us.preheader ], [ %indvars.iv.next84, %._crit_edge.us ]
  %8 = icmp eq i64 %indvars.iv83, 15
  br i1 %8, label %.preheader.us.us, label %.preheader.us61

.split.us:                                        ; preds = %32
  %indvars.iv.next71 = add nuw nsw i64 %indvars.iv70, 1
  %exitcond73.not = icmp eq i64 %indvars.iv.next71, %wide.trip.count
  br i1 %exitcond73.not, label %._crit_edge.us, label %.preheader.us61, !llvm.loop !4

9:                                                ; preds = %.preheader.us61, %32
  %indvars.iv = phi i64 [ 0, %.preheader.us61 ], [ %indvars.iv.next, %32 ]
  %.05356.us = phi i32 [ 0, %.preheader.us61 ], [ %.1.us, %32 ]
  %10 = getelementptr inbounds [20 x i32], ptr @tx_size_2d, i64 0, i64 %indvars.iv
  %11 = load i32, ptr %10, align 4
  %12 = trunc i64 %indvars.iv to i8
  switch i8 %12, label %15 [
    i8 4, label %av1_get_adjusted_tx_size.exit.us
    i8 12, label %av1_get_adjusted_tx_size.exit.us
    i8 11, label %av1_get_adjusted_tx_size.exit.us
    i8 18, label %14
    i8 17, label %13
  ]

13:                                               ; preds = %9
  br label %av1_get_adjusted_tx_size.exit.us

14:                                               ; preds = %9
  br label %av1_get_adjusted_tx_size.exit.us

15:                                               ; preds = %9
  br label %av1_get_adjusted_tx_size.exit.us

av1_get_adjusted_tx_size.exit.us:                 ; preds = %15, %14, %13, %9, %9, %9
  %.0.i.us = phi i8 [ %12, %15 ], [ 9, %13 ], [ 10, %14 ], [ 3, %9 ], [ 3, %9 ], [ 3, %9 ]
  %16 = zext i8 %.0.i.us to i64
  %.not.us = icmp eq i64 %indvars.iv, %16
  br i1 %.not.us, label %25, label %17

17:                                               ; preds = %av1_get_adjusted_tx_size.exit.us
  %18 = zext nneg i8 %.0.i.us to i64
  %19 = getelementptr inbounds [16 x [3 x [19 x ptr]]], ptr %4, i64 0, i64 %indvars.iv83, i64 %indvars.iv70, i64 %18
  %20 = load ptr, ptr %19, align 8
  %21 = getelementptr inbounds [16 x [3 x [19 x ptr]]], ptr %4, i64 0, i64 %indvars.iv83, i64 %indvars.iv70, i64 %indvars.iv
  store ptr %20, ptr %21, align 8
  %22 = getelementptr inbounds [16 x [3 x [19 x ptr]]], ptr %5, i64 0, i64 %indvars.iv83, i64 %indvars.iv70, i64 %18
  %23 = load ptr, ptr %22, align 8
  %24 = getelementptr inbounds [16 x [3 x [19 x ptr]]], ptr %5, i64 0, i64 %indvars.iv83, i64 %indvars.iv70, i64 %indvars.iv
  store ptr %23, ptr %24, align 8
  br label %32

25:                                               ; preds = %av1_get_adjusted_tx_size.exit.us
  %26 = sext i32 %.05356.us to i64
  %27 = getelementptr inbounds [15 x [2 x [3344 x i8]]], ptr @wt_matrix_ref, i64 0, i64 %indvars.iv83, i64 %34, i64 %26
  %28 = getelementptr inbounds [16 x [3 x [19 x ptr]]], ptr %4, i64 0, i64 %indvars.iv83, i64 %indvars.iv70, i64 %indvars.iv
  store ptr %27, ptr %28, align 8
  %29 = getelementptr inbounds [15 x [2 x [3344 x i8]]], ptr @iwt_matrix_ref, i64 0, i64 %indvars.iv83, i64 %34, i64 %26
  %30 = getelementptr inbounds [16 x [3 x [19 x ptr]]], ptr %5, i64 0, i64 %indvars.iv83, i64 %indvars.iv70, i64 %indvars.iv
  store ptr %29, ptr %30, align 8
  %31 = add nsw i32 %11, %.05356.us
  br label %32

32:                                               ; preds = %25, %17
  %.1.us = phi i32 [ %.05356.us, %17 ], [ %31, %25 ]
  %indvars.iv.next = add nuw nsw i64 %indvars.iv, 1
  %exitcond.not = icmp eq i64 %indvars.iv.next, 19
  br i1 %exitcond.not, label %.split.us, label %9, !llvm.loop !6

.preheader.us61:                                  ; preds = %.preheader55.us, %.split.us
  %indvars.iv70 = phi i64 [ %indvars.iv.next71, %.split.us ], [ 0, %.preheader55.us ]
  %33 = icmp ne i64 %indvars.iv70, 0
  %34 = zext i1 %33 to i64
  br label %9

._crit_edge.us:                                   ; preds = %.split.us, %.split.us.us.us
  %indvars.iv.next84 = add nuw nsw i64 %indvars.iv83, 1
  %exitcond86.not = icmp eq i64 %indvars.iv.next84, 16
  br i1 %exitcond86.not, label %.split66.us, label %.preheader55.us, !llvm.loop !7

.preheader.us.us:                                 ; preds = %.preheader55.us, %.split.us.us.us
  %indvars.iv78 = phi i64 [ %indvars.iv.next79, %.split.us.us.us ], [ 0, %.preheader55.us ]
  br label %av1_get_adjusted_tx_size.exit.us.us.us

av1_get_adjusted_tx_size.exit.us.us.us:           ; preds = %av1_get_adjusted_tx_size.exit.us.us.us, %.preheader.us.us
  %indvars.iv74 = phi i64 [ %indvars.iv.next75, %av1_get_adjusted_tx_size.exit.us.us.us ], [ 0, %.preheader.us.us ]
  %35 = getelementptr inbounds [3 x [19 x ptr]], ptr %6, i64 0, i64 %indvars.iv78, i64 %indvars.iv74
  store ptr null, ptr %35, align 8
  %36 = getelementptr inbounds [3 x [19 x ptr]], ptr %7, i64 0, i64 %indvars.iv78, i64 %indvars.iv74
  store ptr null, ptr %36, align 8
  %indvars.iv.next75 = add nuw nsw i64 %indvars.iv74, 1
  %exitcond77.not = icmp eq i64 %indvars.iv.next75, 19
  br i1 %exitcond77.not, label %.split.us.us.us, label %av1_get_adjusted_tx_size.exit.us.us.us, !llvm.loop !6

.split.us.us.us:                                  ; preds = %av1_get_adjusted_tx_size.exit.us.us.us
  %indvars.iv.next79 = add nuw nsw i64 %indvars.iv78, 1
  %exitcond82.not = icmp eq i64 %indvars.iv.next79, %wide.trip.count81
  br i1 %exitcond82.not, label %._crit_edge.us, label %.preheader.us.us, !llvm.loop !4

.split66.us:                                      ; preds = %._crit_edge.us, %2
  ret void
}